; Function Attrs: mustprogress uwtable
define noundef zeroext i1 @_ZNK8facebook5velox6common18NegatedBytesValues13testingEqualsERKNS1_6FilterE(ptr nocapture noundef nonnull readonly align 8 dereferenceable(24) %this, ptr noundef nonnull align 8 dereferenceable(16) %other) unnamed_addr #0 align 2 {
entry:
  %0 = tail call ptr @__dynamic_cast(ptr nonnull %other, ptr nonnull @_ZTIN8facebook5velox6common6FilterE, ptr nonnull @_ZTIN8facebook5velox6common18NegatedBytesValuesE, i64 0) #34
  %cmp.not = icmp eq ptr %0, null
  br i1 %cmp.not, label %land.end, label %land.lhs.true

land.lhs.true:                                    ; preds = %entry
  %deterministic_.i = getelementptr inbounds i8, ptr %this, i64 9
  %1 = load i8, ptr %deterministic_.i, align 1
  %vtable.i = load ptr, ptr %other, align 8
  %vfn.i = getelementptr inbounds i8, ptr %vtable.i, i64 32
  %2 = load ptr, ptr %vfn.i, align 8
  %call.i = tail call noundef zeroext i1 %2(ptr noundef nonnull align 8 dereferenceable(16) %other)
  %3 = and i8 %1, 1
  %4 = icmp eq i8 %3, 0
  %cmp.i = xor i1 %4, %call.i
  br i1 %cmp.i, label %land.lhs.true.i, label %land.end

land.lhs.true.i:                                  ; preds = %land.lhs.true
  %nullAllowed_.i = getelementptr inbounds i8, ptr %this, i64 8
  %5 = load i8, ptr %nullAllowed_.i, align 8
  %nullAllowed_5.i = getelementptr inbounds i8, ptr %other, i64 8
  %6 = load i8, ptr %nullAllowed_5.i, align 8
  %7 = xor i8 %6, %5
  %8 = and i8 %7, 1
  %cmp8.i = icmp eq i8 %8, 0
  br i1 %cmp8.i, label %_ZNK8facebook5velox6common6Filter17testingBaseEqualsERKS2_.exit, label %land.end

_ZNK8facebook5velox6common6Filter17testingBaseEqualsERKS2_.exit: ; preds = %land.lhs.true.i
  %kind_.i = getelementptr inbounds i8, ptr %this, i64 12
  %9 = load i32, ptr %kind_.i, align 4
  %kind_.i.i = getelementptr inbounds i8, ptr %other, i64 12
  %10 = load i32, ptr %kind_.i.i, align 4
  %cmp10.i = icmp eq i32 %9, %10
  br i1 %cmp10.i, label %land.rhs, label %land.end

land.rhs:                                         ; preds = %_ZNK8facebook5velox6common6Filter17testingBaseEqualsERKS2_.exit
  %nonNegated_ = getelementptr inbounds i8, ptr %this, i64 16
  %11 = load ptr, ptr %nonNegated_, align 8
  %nonNegated_3 = getelementptr inbounds i8, ptr %0, i64 16
  %12 = load ptr, ptr %nonNegated_3, align 8
  %call5 = tail call noundef zeroext i1 @_ZNK8facebook5velox6common11BytesValues13testingEqualsERKNS1_6FilterE(ptr noundef nonnull align 8 dereferenceable(136) %11, ptr noundef nonnull align 8 dereferenceable(16) %12)
  br label %land.end

land.end:                                         ; preds = %land.lhs.true, %land.lhs.true.i, %land.rhs, %_ZNK8facebook5velox6common6Filter17testingBaseEqualsERKS2_.exit, %entry
  %13 = phi i1 [ false, %_ZNK8facebook5velox6common6Filter17testingBaseEqualsERKS2_.exit ], [ false, %entry ], [ %call5, %land.rhs ], [ false, %land.lhs.true.i ], [ false, %land.lhs.true ]
  ret i1 %13
}